; Function Attrs: nounwind uwtable
define hidden void @SDL_ClearHashTable(ptr noundef captures(address_is_null) %0) local_unnamed_addr #0 {
  %.not = icmp eq ptr %0, null
  br i1 %.not, label %35, label %2

2:                                                ; preds = %1
  %3 = load ptr, ptr %0, align 8
  tail call void @SDL_LockRWLockForWriting_REAL(ptr noundef %3) #10
  %4 = getelementptr inbounds nuw i8, ptr %0, i64 32
  %5 = load ptr, ptr %4, align 8
  %.not.i = icmp eq ptr %5, null
  br i1 %.not.i, label %destroy_all.exit, label %6

6:                                                ; preds = %2
  %7 = getelementptr inbounds nuw i8, ptr %0, i64 40
  %8 = load ptr, ptr %7, align 8
  %9 = getelementptr inbounds nuw i8, ptr %0, i64 8
  %10 = load ptr, ptr %9, align 8
  %11 = getelementptr inbounds nuw i8, ptr %0, i64 48
  %12 = load i32, ptr %11, align 8
  %13 = add i32 %12, 1
  %14 = zext i32 %13 to i64
  %15 = getelementptr inbounds nuw %struct.SDL_HashItem, ptr %10, i64 %14
  %.not18.i = icmp eq i32 %13, 0
  br i1 %.not18.i, label %destroy_all.exit, label %.lr.ph.i

.lr.ph.i:                                         ; preds = %6, %23
  %.017.i = phi ptr [ %24, %23 ], [ %10, %6 ]
  %16 = getelementptr inbounds nuw i8, ptr %.017.i, i64 20
  %17 = load i32, ptr %16, align 4
  %.not16.i = icmp sgt i32 %17, -1
  br i1 %.not16.i, label %23, label %18

18:                                               ; preds = %.lr.ph.i
  %19 = and i32 %17, 2147483647
  store i32 %19, ptr %16, align 4
  %20 = load ptr, ptr %.017.i, align 8
  %21 = getelementptr inbounds nuw i8, ptr %.017.i, i64 8
  %22 = load ptr, ptr %21, align 8
  tail call void %5(ptr noundef %8, ptr noundef %20, ptr noundef %22) #10
  br label %23

23:                                               ; preds = %18, %.lr.ph.i
  %24 = getelementptr inbounds nuw i8, ptr %.017.i, i64 24
  %25 = icmp ult ptr %24, %15
  br i1 %25, label %.lr.ph.i, label %destroy_all.exit, !llvm.loop !3

destroy_all.exit:                                 ; preds = %23, %2, %6
  %26 = getelementptr inbounds nuw i8, ptr %0, i64 8
  %27 = load ptr, ptr %26, align 8
  %28 = getelementptr inbounds nuw i8, ptr %0, i64 48
  %29 = load i32, ptr %28, align 8
  %30 = add i32 %29, 1
  %31 = zext i32 %30 to i64
  %32 = mul nuw nsw i64 %31, 24
  tail call void @llvm.memset.p0.i64(ptr align 8 %27, i8 0, i64 %32, i1 false)
  %33 = getelementptr inbounds nuw i8, ptr %0, i64 56
  store i32 0, ptr %33, align 8
  %34 = load ptr, ptr %0, align 8
  tail call void @SDL_UnlockRWLock_REAL(ptr noundef %34) #10
  br label %35

35:                                               ; preds = %destroy_all.exit, %1
  ret void
}